target datalayout = "e-m:e-p270:32:32-p271:32:32-p272:64:64-i64:64-i128:128-f80:128-n8:16:32:64-S128"
target triple = "x86_64-pc-linux-gnu"

; Function Attrs: inlinehint nounwind uwtable
define internal i32 @rnd_avg32(i32 noundef %0, i32 noundef %1) #4 {
  %3 = alloca i32, align 4
  %4 = alloca i32, align 4
  store i32 %0, ptr %3, align 4, !tbaa !14
  store i32 %1, ptr %4, align 4, !tbaa !14
  %5 = load i32, ptr %3, align 4, !tbaa !14
  %6 = load i32, ptr %4, align 4, !tbaa !14
  %7 = or i32 %5, %6
  %8 = zext i32 %7 to i64
  %9 = load i32, ptr %3, align 4, !tbaa !14
  %10 = load i32, ptr %4, align 4, !tbaa !14
  %11 = xor i32 %9, %10
  %12 = zext i32 %11 to i64
  %13 = and i64 %12, -16843010
  %14 = lshr i64 %13, 1
  %15 = sub i64 %8, %14
  %16 = trunc i64 %15 to i32
  ret i32 %16
}

; Function Attrs: inlinehint nounwind uwtable
define internal void @avg_pixels8_xy2_8_c(ptr noundef %0, ptr noundef %1, i64 noundef %2, i32 noundef %3) #4 {
  %5 = alloca ptr, align 8
  %6 = alloca ptr, align 8
  %7 = alloca i64, align 8
  %8 = alloca i32, align 4
  %9 = alloca i32, align 4
  %10 = alloca i32, align 4
  %11 = alloca i32, align 4
  %12 = alloca i32, align 4
  %13 = alloca i32, align 4
  %14 = alloca i32, align 4
  %15 = alloca i32, align 4
  %16 = alloca i32, align 4
  %17 = alloca i32, align 4
  %18 = alloca i32, align 4
  store ptr %0, ptr %5, align 8, !tbaa !10
  store ptr %1, ptr %6, align 8, !tbaa !10
  store i64 %2, ptr %7, align 8, !tbaa !12
  store i32 %3, ptr %8, align 4, !tbaa !14
  call void @llvm.lifetime.start.p0(i64 4, ptr %9) #7
  store i32 0, ptr %9, align 4, !tbaa !14
  br label %19

19:                                               ; preds = %165, %4
  %20 = load i32, ptr %9, align 4, !tbaa !14
  %21 = icmp slt i32 %20, 2
  br i1 %21, label %22, label %168

22:                                               ; preds = %19
  call void @llvm.lifetime.start.p0(i64 4, ptr %10) #7
  call void @llvm.lifetime.start.p0(i64 4, ptr %11) #7
  %23 = load ptr, ptr %6, align 8, !tbaa !10
  %24 = load i32, ptr %23, align 1, !tbaa !16
  store i32 %24, ptr %11, align 4, !tbaa !14
  call void @llvm.lifetime.start.p0(i64 4, ptr %12) #7
  %25 = load ptr, ptr %6, align 8, !tbaa !10
  %26 = getelementptr inbounds i8, ptr %25, i64 1
  %27 = load i32, ptr %26, align 1, !tbaa !16
  store i32 %27, ptr %12, align 4, !tbaa !14
  call void @llvm.lifetime.start.p0(i64 4, ptr %13) #7
  %28 = load i32, ptr %11, align 4, !tbaa !14
  %29 = zext i32 %28 to i64
  %30 = and i64 %29, 50529027
  %31 = load i32, ptr %12, align 4, !tbaa !14
  %32 = zext i32 %31 to i64
  %33 = and i64 %32, 50529027
  %34 = add i64 %30, %33
  %35 = add i64 %34, 33686018
  %36 = trunc i64 %35 to i32
  store i32 %36, ptr %13, align 4, !tbaa !14
  call void @llvm.lifetime.start.p0(i64 4, ptr %14) #7
  %37 = load i32, ptr %11, align 4, !tbaa !14
  %38 = zext i32 %37 to i64
  %39 = and i64 %38, 4244438268
  %40 = lshr i64 %39, 2
  %41 = load i32, ptr %12, align 4, !tbaa !14
  %42 = zext i32 %41 to i64
  %43 = and i64 %42, 4244438268
  %44 = lshr i64 %43, 2
  %45 = add i64 %40, %44
  %46 = trunc i64 %45 to i32
  store i32 %46, ptr %14, align 4, !tbaa !14
  call void @llvm.lifetime.start.p0(i64 4, ptr %15) #7
  call void @llvm.lifetime.start.p0(i64 4, ptr %16) #7
  %47 = load i64, ptr %7, align 8, !tbaa !12
  %48 = load ptr, ptr %6, align 8, !tbaa !10
  %49 = getelementptr inbounds i8, ptr %48, i64 %47
  store ptr %49, ptr %6, align 8, !tbaa !10
  store i32 0, ptr %10, align 4, !tbaa !14
  br label %50

50:                                               ; preds = %146, %22
  %51 = load i32, ptr %10, align 4, !tbaa !14
  %52 = load i32, ptr %8, align 4, !tbaa !14
  %53 = icmp slt i32 %51, %52
  br i1 %53, label %54, label %149

54:                                               ; preds = %50
  call void @llvm.lifetime.start.p0(i64 4, ptr %17) #7
  %55 = load ptr, ptr %6, align 8, !tbaa !10
  %56 = load i32, ptr %55, align 1, !tbaa !16
  store i32 %56, ptr %17, align 4, !tbaa !14
  call void @llvm.lifetime.start.p0(i64 4, ptr %18) #7
  %57 = load ptr, ptr %6, align 8, !tbaa !10
  %58 = getelementptr inbounds i8, ptr %57, i64 1
  %59 = load i32, ptr %58, align 1, !tbaa !16
  store i32 %59, ptr %18, align 4, !tbaa !14
  %60 = load i32, ptr %17, align 4, !tbaa !14
  %61 = zext i32 %60 to i64
  %62 = and i64 %61, 50529027
  %63 = load i32, ptr %18, align 4, !tbaa !14
  %64 = zext i32 %63 to i64
  %65 = and i64 %64, 50529027
  %66 = add i64 %62, %65
  %67 = trunc i64 %66 to i32
  store i32 %67, ptr %15, align 4, !tbaa !14
  %68 = load i32, ptr %17, align 4, !tbaa !14
  %69 = zext i32 %68 to i64
  %70 = and i64 %69, 4244438268
  %71 = lshr i64 %70, 2
  %72 = load i32, ptr %18, align 4, !tbaa !14
  %73 = zext i32 %72 to i64
  %74 = and i64 %73, 4244438268
  %75 = lshr i64 %74, 2
  %76 = add i64 %71, %75
  %77 = trunc i64 %76 to i32
  store i32 %77, ptr %16, align 4, !tbaa !14
  %78 = load ptr, ptr %5, align 8, !tbaa !10
  %79 = load i32, ptr %78, align 4, !tbaa !14
  %80 = load i32, ptr %14, align 4, !tbaa !14
  %81 = load i32, ptr %16, align 4, !tbaa !14
  %82 = add i32 %80, %81
  %83 = zext i32 %82 to i64
  %84 = load i32, ptr %13, align 4, !tbaa !14
  %85 = load i32, ptr %15, align 4, !tbaa !14
  %86 = add i32 %84, %85
  %87 = lshr i32 %86, 2
  %88 = zext i32 %87 to i64
  %89 = and i64 %88, 252645135
  %90 = add i64 %83, %89
  %91 = trunc i64 %90 to i32
  %92 = call i32 @rnd_avg32(i32 noundef %79, i32 noundef %91)
  %93 = load ptr, ptr %5, align 8, !tbaa !10
  store i32 %92, ptr %93, align 4, !tbaa !14
  %94 = load i64, ptr %7, align 8, !tbaa !12
  %95 = load ptr, ptr %6, align 8, !tbaa !10
  %96 = getelementptr inbounds i8, ptr %95, i64 %94
  store ptr %96, ptr %6, align 8, !tbaa !10
  %97 = load i64, ptr %7, align 8, !tbaa !12
  %98 = load ptr, ptr %5, align 8, !tbaa !10
  %99 = getelementptr inbounds i8, ptr %98, i64 %97
  store ptr %99, ptr %5, align 8, !tbaa !10
  %100 = load ptr, ptr %6, align 8, !tbaa !10
  %101 = load i32, ptr %100, align 1, !tbaa !16
  store i32 %101, ptr %17, align 4, !tbaa !14
  %102 = load ptr, ptr %6, align 8, !tbaa !10
  %103 = getelementptr inbounds i8, ptr %102, i64 1
  %104 = load i32, ptr %103, align 1, !tbaa !16
  store i32 %104, ptr %18, align 4, !tbaa !14
  %105 = load i32, ptr %17, align 4, !tbaa !14
  %106 = zext i32 %105 to i64
  %107 = and i64 %106, 50529027
  %108 = load i32, ptr %18, align 4, !tbaa !14
  %109 = zext i32 %108 to i64
  %110 = and i64 %109, 50529027
  %111 = add i64 %107, %110
  %112 = add i64 %111, 33686018
  %113 = trunc i64 %112 to i32
  store i32 %113, ptr %13, align 4, !tbaa !14
  %114 = load i32, ptr %17, align 4, !tbaa !14
  %115 = zext i32 %114 to i64
  %116 = and i64 %115, 4244438268
  %117 = lshr i64 %116, 2
  %118 = load i32, ptr %18, align 4, !tbaa !14
  %119 = zext i32 %118 to i64
  %120 = and i64 %119, 4244438268
  %121 = lshr i64 %120, 2
  %122 = add i64 %117, %121
  %123 = trunc i64 %122 to i32
  store i32 %123, ptr %14, align 4, !tbaa !14
  %124 = load ptr, ptr %5, align 8, !tbaa !10
  %125 = load i32, ptr %124, align 4, !tbaa !14
  %126 = load i32, ptr %14, align 4, !tbaa !14
  %127 = load i32, ptr %16, align 4, !tbaa !14
  %128 = add i32 %126, %127
  %129 = zext i32 %128 to i64
  %130 = load i32, ptr %13, align 4, !tbaa !14
  %131 = load i32, ptr %15, align 4, !tbaa !14
  %132 = add i32 %130, %131
  %133 = lshr i32 %132, 2
  %134 = zext i32 %133 to i64
  %135 = and i64 %134, 252645135
  %136 = add i64 %129, %135
  %137 = trunc i64 %136 to i32
  %138 = call i32 @rnd_avg32(i32 noundef %125, i32 noundef %137)
  %139 = load ptr, ptr %5, align 8, !tbaa !10
  store i32 %138, ptr %139, align 4, !tbaa !14
  %140 = load i64, ptr %7, align 8, !tbaa !12
  %141 = load ptr, ptr %6, align 8, !tbaa !10
  %142 = getelementptr inbounds i8, ptr %141, i64 %140
  store ptr %142, ptr %6, align 8, !tbaa !10
  %143 = load i64, ptr %7, align 8, !tbaa !12
  %144 = load ptr, ptr %5, align 8, !tbaa !10
  %145 = getelementptr inbounds i8, ptr %144, i64 %143
  store ptr %145, ptr %5, align 8, !tbaa !10
  call void @llvm.lifetime.end.p0(i64 4, ptr %18) #7
  call void @llvm.lifetime.end.p0(i64 4, ptr %17) #7
  br label %146

146:                                              ; preds = %54
  %147 = load i32, ptr %10, align 4, !tbaa !14
  %148 = add nsw i32 %147, 2
  store i32 %148, ptr %10, align 4, !tbaa !14
  br label %50, !llvm.loop !42

149:                                              ; preds = %50
  %150 = load i64, ptr %7, align 8, !tbaa !12
  %151 = load i32, ptr %8, align 4, !tbaa !14
  %152 = add nsw i32 %151, 1
  %153 = sext i32 %152 to i64
  %154 = mul nsw i64 %150, %153
  %155 = sub nsw i64 4, %154
  %156 = load ptr, ptr %6, align 8, !tbaa !10
  %157 = getelementptr inbounds i8, ptr %156, i64 %155
  store ptr %157, ptr %6, align 8, !tbaa !10
  %158 = load i64, ptr %7, align 8, !tbaa !12
  %159 = load i32, ptr %8, align 4, !tbaa !14
  %160 = sext i32 %159 to i64
  %161 = mul nsw i64 %158, %160
  %162 = sub nsw i64 4, %161
  %163 = load ptr, ptr %5, align 8, !tbaa !10
  %164 = getelementptr inbounds i8, ptr %163, i64 %162
  store ptr %164, ptr %5, align 8, !tbaa !10
  call void @llvm.lifetime.end.p0(i64 4, ptr %16) #7
  call void @llvm.lifetime.end.p0(i64 4, ptr %15) #7
  call void @llvm.lifetime.end.p0(i64 4, ptr %14) #7
  call void @llvm.lifetime.end.p0(i64 4, ptr %13) #7
  call void @llvm.lifetime.end.p0(i64 4, ptr %12) #7
  call void @llvm.lifetime.end.p0(i64 4, ptr %11) #7
  call void @llvm.lifetime.end.p0(i64 4, ptr %10) #7
  br label %165

165:                                              ; preds = %149
  %166 = load i32, ptr %9, align 4, !tbaa !14
  %167 = add nsw i32 %166, 1
  store i32 %167, ptr %9, align 4, !tbaa !14
  br label %19, !llvm.loop !43

168:                                              ; preds = %19
  call void @llvm.lifetime.end.p0(i64 4, ptr %9) #7
  ret void
}

; Function Attrs: nounwind uwtable
define internal void @avg_pixels16_xy2_8_c(ptr noundef %0, ptr noundef %1, i64 noundef %2, i32 noundef %3) #3 {
  %5 = alloca ptr, align 8
  %6 = alloca ptr, align 8
  %7 = alloca i64, align 8
  %8 = alloca i32, align 4
  store ptr %0, ptr %5, align 8, !tbaa !10
  store ptr %1, ptr %6, align 8, !tbaa !10
  store i64 %2, ptr %7, align 8, !tbaa !12
  store i32 %3, ptr %8, align 4, !tbaa !14
  %9 = load ptr, ptr %5, align 8, !tbaa !10
  %10 = load ptr, ptr %6, align 8, !tbaa !10
  %11 = load i64, ptr %7, align 8, !tbaa !12
  %12 = load i32, ptr %8, align 4, !tbaa !14
  call void @avg_pixels8_xy2_8_c(ptr noundef %9, ptr noundef %10, i64 noundef %11, i32 noundef %12)
  %13 = load ptr, ptr %5, align 8, !tbaa !10
  %14 = getelementptr inbounds i8, ptr %13, i64 8
  %15 = load ptr, ptr %6, align 8, !tbaa !10
  %16 = getelementptr inbounds i8, ptr %15, i64 8
  %17 = load i64, ptr %7, align 8, !tbaa !12
  %18 = load i32, ptr %8, align 4, !tbaa !14
  call void @avg_pixels8_xy2_8_c(ptr noundef %14, ptr noundef %16, i64 noundef %17, i32 noundef %18)
  ret void
}

; Function Attrs: nounwind uwtable
define internal void @avg_rv40_qpel16_mc33_c(ptr noundef %0, ptr noundef %1, i64 noundef %2) #3 {
  %4 = alloca ptr, align 8
  %5 = alloca ptr, align 8
  %6 = alloca i64, align 8
  store ptr %0, ptr %4, align 8, !tbaa !10
  store ptr %1, ptr %5, align 8, !tbaa !10
  store i64 %2, ptr %6, align 8, !tbaa !12
  %7 = load ptr, ptr %4, align 8, !tbaa !10
  %8 = load ptr, ptr %5, align 8, !tbaa !10
  %9 = load i64, ptr %6, align 8, !tbaa !12
  call void @avg_pixels16_xy2_8_c(ptr noundef %7, ptr noundef %8, i64 noundef %9, i32 noundef 16)
  ret void
}