; Function Attrs: nofree norecurse nosync nounwind memory(argmem: readwrite) uwtable
define internal void @avg_rv40_qpel16_mc33_c(ptr noundef captures(none) %0, ptr noundef readonly captures(none) %1, i64 noundef %2) #3 {
  %.neg.i = mul i64 %2, -17
  %4 = add i64 %.neg.i, 4
  %5 = shl nsw i64 %2, 4
  %6 = sub nsw i64 4, %5
  br label %7

7:                                                ; preds = %69, %3
  %.067.i.i = phi ptr [ %0, %3 ], [ %71, %69 ]
  %.05066.i.i = phi ptr [ %1, %3 ], [ %70, %69 ]
  %8 = phi i1 [ true, %3 ], [ false, %69 ]
  %9 = load i32, ptr %.05066.i.i, align 1, !tbaa !8
  %10 = getelementptr inbounds nuw i8, ptr %.05066.i.i, i64 1
  %11 = load i32, ptr %10, align 1, !tbaa !8
  %12 = and i32 %9, 50529027
  %13 = and i32 %11, 50529027
  %14 = add nuw nsw i32 %12, 33686018
  %15 = add nuw nsw i32 %14, %13
  %16 = lshr i32 %9, 2
  %17 = and i32 %16, 1061109567
  %18 = lshr i32 %11, 2
  %19 = and i32 %18, 1061109567
  %narrow.i.i = add nuw nsw i32 %19, %17
  %.15159.i.i = getelementptr inbounds i8, ptr %.05066.i.i, i64 %2
  br label %20

20:                                               ; preds = %20, %7
  %.15164.i.i = phi ptr [ %.15159.i.i, %7 ], [ %.151.i.i, %20 ]
  %.163.i.i = phi ptr [ %.067.i.i, %7 ], [ %66, %20 ]
  %.05362.i.i = phi i32 [ 0, %7 ], [ %67, %20 ]
  %.05461.i.i = phi i32 [ %narrow.i.i, %7 ], [ %narrow58.i.i, %20 ]
  %.05560.i.i = phi i32 [ %15, %7 ], [ %50, %20 ]
  %21 = load i32, ptr %.15164.i.i, align 1, !tbaa !8
  %22 = getelementptr inbounds nuw i8, ptr %.15164.i.i, i64 1
  %23 = load i32, ptr %22, align 1, !tbaa !8
  %24 = and i32 %21, 50529027
  %25 = and i32 %23, 50529027
  %26 = add nuw nsw i32 %25, %24
  %27 = lshr i32 %21, 2
  %28 = and i32 %27, 1061109567
  %29 = lshr i32 %23, 2
  %30 = and i32 %29, 1061109567
  %narrow57.i.i = add nuw nsw i32 %30, %28
  %31 = load i32, ptr %.163.i.i, align 4, !tbaa !9
  %32 = add nuw i32 %narrow57.i.i, %.05461.i.i
  %33 = add nuw nsw i32 %26, %.05560.i.i
  %34 = lshr i32 %33, 2
  %35 = and i32 %34, 252645135
  %36 = add i32 %32, %35
  %37 = or i32 %36, %31
  %38 = xor i32 %36, %31
  %39 = lshr i32 %38, 1
  %40 = and i32 %39, 2139062143
  %41 = sub i32 %37, %40
  store i32 %41, ptr %.163.i.i, align 4, !tbaa !9
  %42 = getelementptr inbounds i8, ptr %.15164.i.i, i64 %2
  %43 = getelementptr inbounds i8, ptr %.163.i.i, i64 %2
  %44 = load i32, ptr %42, align 1, !tbaa !8
  %45 = getelementptr inbounds nuw i8, ptr %42, i64 1
  %46 = load i32, ptr %45, align 1, !tbaa !8
  %47 = and i32 %44, 50529027
  %48 = and i32 %46, 50529027
  %49 = add nuw nsw i32 %47, 33686018
  %50 = add nuw nsw i32 %49, %48
  %51 = lshr i32 %44, 2
  %52 = and i32 %51, 1061109567
  %53 = lshr i32 %46, 2
  %54 = and i32 %53, 1061109567
  %narrow58.i.i = add nuw nsw i32 %54, %52
  %55 = load i32, ptr %43, align 4, !tbaa !9
  %56 = add nuw i32 %narrow58.i.i, %narrow57.i.i
  %57 = add nuw nsw i32 %50, %26
  %58 = lshr i32 %57, 2
  %59 = and i32 %58, 117901063
  %60 = add i32 %56, %59
  %61 = or i32 %60, %55
  %62 = xor i32 %60, %55
  %63 = lshr i32 %62, 1
  %64 = and i32 %63, 2139062143
  %65 = sub i32 %61, %64
  store i32 %65, ptr %43, align 4, !tbaa !9
  %66 = getelementptr inbounds i8, ptr %43, i64 %2
  %67 = add nuw nsw i32 %.05362.i.i, 2
  %.151.i.i = getelementptr inbounds i8, ptr %42, i64 %2
  %68 = icmp samesign ult i32 %.05362.i.i, 14
  br i1 %68, label %20, label %69, !llvm.loop !14

69:                                               ; preds = %20
  %70 = getelementptr inbounds i8, ptr %.151.i.i, i64 %4
  %71 = getelementptr inbounds i8, ptr %66, i64 %6
  br i1 %8, label %7, label %avg_pixels8_xy2_8_c.exit.i, !llvm.loop !15

avg_pixels8_xy2_8_c.exit.i:                       ; preds = %69
  %72 = getelementptr inbounds nuw i8, ptr %0, i64 8
  %73 = getelementptr inbounds nuw i8, ptr %1, i64 8
  br label %74

74:                                               ; preds = %136, %avg_pixels8_xy2_8_c.exit.i
  %.067.i7.i = phi ptr [ %72, %avg_pixels8_xy2_8_c.exit.i ], [ %138, %136 ]
  %.05066.i8.i = phi ptr [ %73, %avg_pixels8_xy2_8_c.exit.i ], [ %137, %136 ]
  %75 = phi i1 [ true, %avg_pixels8_xy2_8_c.exit.i ], [ false, %136 ]
  %76 = load i32, ptr %.05066.i8.i, align 1, !tbaa !8
  %77 = getelementptr inbounds nuw i8, ptr %.05066.i8.i, i64 1
  %78 = load i32, ptr %77, align 1, !tbaa !8
  %79 = and i32 %76, 50529027
  %80 = and i32 %78, 50529027
  %81 = add nuw nsw i32 %79, 33686018
  %82 = add nuw nsw i32 %81, %80
  %83 = lshr i32 %76, 2
  %84 = and i32 %83, 1061109567
  %85 = lshr i32 %78, 2
  %86 = and i32 %85, 1061109567
  %narrow.i9.i = add nuw nsw i32 %86, %84
  %.15159.i10.i = getelementptr inbounds i8, ptr %.05066.i8.i, i64 %2
  br label %87

87:                                               ; preds = %87, %74
  %.15164.i11.i = phi ptr [ %.15159.i10.i, %74 ], [ %.151.i18.i, %87 ]
  %.163.i12.i = phi ptr [ %.067.i7.i, %74 ], [ %133, %87 ]
  %.05362.i13.i = phi i32 [ 0, %74 ], [ %134, %87 ]
  %.05461.i14.i = phi i32 [ %narrow.i9.i, %74 ], [ %narrow58.i17.i, %87 ]
  %.05560.i15.i = phi i32 [ %82, %74 ], [ %117, %87 ]
  %88 = load i32, ptr %.15164.i11.i, align 1, !tbaa !8
  %89 = getelementptr inbounds nuw i8, ptr %.15164.i11.i, i64 1
  %90 = load i32, ptr %89, align 1, !tbaa !8
  %91 = and i32 %88, 50529027
  %92 = and i32 %90, 50529027
  %93 = add nuw nsw i32 %92, %91
  %94 = lshr i32 %88, 2
  %95 = and i32 %94, 1061109567
  %96 = lshr i32 %90, 2
  %97 = and i32 %96, 1061109567
  %narrow57.i16.i = add nuw nsw i32 %97, %95
  %98 = load i32, ptr %.163.i12.i, align 4, !tbaa !9
  %99 = add nuw i32 %narrow57.i16.i, %.05461.i14.i
  %100 = add nuw nsw i32 %93, %.05560.i15.i
  %101 = lshr i32 %100, 2
  %102 = and i32 %101, 252645135
  %103 = add i32 %99, %102
  %104 = or i32 %103, %98
  %105 = xor i32 %103, %98
  %106 = lshr i32 %105, 1
  %107 = and i32 %106, 2139062143
  %108 = sub i32 %104, %107
  store i32 %108, ptr %.163.i12.i, align 4, !tbaa !9
  %109 = getelementptr inbounds i8, ptr %.15164.i11.i, i64 %2
  %110 = getelementptr inbounds i8, ptr %.163.i12.i, i64 %2
  %111 = load i32, ptr %109, align 1, !tbaa !8
  %112 = getelementptr inbounds nuw i8, ptr %109, i64 1
  %113 = load i32, ptr %112, align 1, !tbaa !8
  %114 = and i32 %111, 50529027
  %115 = and i32 %113, 50529027
  %116 = add nuw nsw i32 %114, 33686018
  %117 = add nuw nsw i32 %116, %115
  %118 = lshr i32 %111, 2
  %119 = and i32 %118, 1061109567
  %120 = lshr i32 %113, 2
  %121 = and i32 %120, 1061109567
  %narrow58.i17.i = add nuw nsw i32 %121, %119
  %122 = load i32, ptr %110, align 4, !tbaa !9
  %123 = add nuw i32 %narrow58.i17.i, %narrow57.i16.i
  %124 = add nuw nsw i32 %117, %93
  %125 = lshr i32 %124, 2
  %126 = and i32 %125, 117901063
  %127 = add i32 %123, %126
  %128 = or i32 %127, %122
  %129 = xor i32 %127, %122
  %130 = lshr i32 %129, 1
  %131 = and i32 %130, 2139062143
  %132 = sub i32 %128, %131
  store i32 %132, ptr %110, align 4, !tbaa !9
  %133 = getelementptr inbounds i8, ptr %110, i64 %2
  %134 = add nuw nsw i32 %.05362.i13.i, 2
  %.151.i18.i = getelementptr inbounds i8, ptr %109, i64 %2
  %135 = icmp samesign ult i32 %.05362.i13.i, 14
  br i1 %135, label %87, label %136, !llvm.loop !14

136:                                              ; preds = %87
  %137 = getelementptr inbounds i8, ptr %.151.i18.i, i64 %4
  %138 = getelementptr inbounds i8, ptr %133, i64 %6
  br i1 %75, label %74, label %avg_pixels16_xy2_8_c.exit, !llvm.loop !15

avg_pixels16_xy2_8_c.exit:                        ; preds = %136
  ret void
}